target datalayout = "e-m:e-p270:32:32-p271:32:32-p272:64:64-i64:64-i128:128-f80:128-n8:16:32:64-S128"
target triple = "x86_64-pc-linux-gnu"

%struct.pattern_validation_functor = type <{ ptr, i32, i32, i8, i8, [2 x i8], i32, i32, i32, i32, [4 x i8] }>
%class.pattern_validator = type { i32, i32 }
%class.ast = type { i32, i32, i32, i32 }
%class.obj_mark = type { [8 x i8], %class.bit_vector }
%class.bit_vector = type { i32, i32, ptr }
%struct.default_t2uint = type { i8 }

@.str = private unnamed_addr constant [36 x i8] c"(%d,%d): invalid pattern: variable.\00", align 1
@.str.1 = private unnamed_addr constant [48 x i8] c"(%d,%d): pattern does not contain any variable.\00", align 1

; Function Attrs: mustprogress nounwind uwtable
define linkonce_odr hidden void @_ZN10bit_vectorC2Ev(ptr noundef nonnull align 8 dereferenceable(16) %0) unnamed_addr #5 comdat align 2 {
  %2 = alloca ptr, align 8
  store ptr %0, ptr %2, align 8, !tbaa !57
  %3 = load ptr, ptr %2, align 8
  %4 = getelementptr inbounds nuw %class.bit_vector, ptr %3, i32 0, i32 0
  store i32 0, ptr %4, align 8, !tbaa !59
  %5 = getelementptr inbounds nuw %class.bit_vector, ptr %3, i32 0, i32 1
  store i32 0, ptr %5, align 4, !tbaa !61
  %6 = getelementptr inbounds nuw %class.bit_vector, ptr %3, i32 0, i32 2
  store ptr null, ptr %6, align 8, !tbaa !62
  ret void
}

; Function Attrs: mustprogress uwtable
define linkonce_odr hidden void @_ZN8obj_markI4expr10bit_vector14default_t2uintIS0_EEC2ERKS3_(ptr noundef nonnull align 8 dereferenceable(24) %0, ptr noundef nonnull align 1 dereferenceable(1) %1) unnamed_addr #4 comdat align 2 {
  %3 = alloca ptr, align 8
  %4 = alloca ptr, align 8
  store ptr %0, ptr %3, align 8, !tbaa !43
  store ptr %1, ptr %4, align 8, !tbaa !45
  %5 = load ptr, ptr %3, align 8
  %6 = getelementptr inbounds nuw %class.obj_mark, ptr %5, i32 0, i32 1
  call void @_ZN10bit_vectorC2Ev(ptr noundef nonnull align 8 dereferenceable(16) %6)
  ret void
}

; Function Attrs: mustprogress uwtable
define linkonce_odr hidden void @_Z13for_each_exprI26pattern_validation_functorEvRT_P4expr(ptr noundef nonnull align 8 dereferenceable(36) %0, ptr noundef %1) #4 comdat personality ptr @__gxx_personality_v0 {
  %3 = alloca ptr, align 8
  %4 = alloca ptr, align 8
  %5 = alloca %class.obj_mark, align 8
  %6 = alloca %struct.default_t2uint, align 1
  %7 = alloca ptr, align 8
  %8 = alloca i32, align 4
  store ptr %0, ptr %3, align 8, !tbaa !25
  store ptr %1, ptr %4, align 8, !tbaa !12
  call void @llvm.lifetime.start.p0(i64 24, ptr %5) #3
  call void @llvm.lifetime.start.p0(i64 1, ptr %6) #3
  call void @_ZN8obj_markI4expr10bit_vector14default_t2uintIS0_EEC2ERKS3_(ptr noundef nonnull align 8 dereferenceable(24) %5, ptr noundef nonnull align 1 dereferenceable(1) %6)
  call void @llvm.lifetime.end.p0(i64 1, ptr %6) #3
  %9 = load ptr, ptr %3, align 8, !tbaa !25
  %10 = load ptr, ptr %4, align 8, !tbaa !12
  invoke void @_Z18for_each_expr_coreI26pattern_validation_functor8obj_markI4expr10bit_vector14default_t2uintIS2_EELb0ELb0EEvRT_RT0_PS2_(ptr noundef nonnull align 8 dereferenceable(36) %9, ptr noundef nonnull align 8 dereferenceable(24) %5, ptr noundef %10)
          to label %11 unwind label %12

11:                                               ; preds = %2
  call void @_ZN8obj_markI4expr10bit_vector14default_t2uintIS0_EED2Ev(ptr noundef nonnull align 8 dereferenceable(24) %5) #3
  call void @llvm.lifetime.end.p0(i64 24, ptr %5) #3
  ret void

12:                                               ; preds = %2
  %13 = landingpad { ptr, i32 }
          cleanup
  %14 = extractvalue { ptr, i32 } %13, 0
  store ptr %14, ptr %7, align 8
  %15 = extractvalue { ptr, i32 } %13, 1
  store i32 %15, ptr %8, align 4
  call void @_ZN8obj_markI4expr10bit_vector14default_t2uintIS0_EED2Ev(ptr noundef nonnull align 8 dereferenceable(24) %5) #3
  call void @llvm.lifetime.end.p0(i64 24, ptr %5) #3
  br label %16

16:                                               ; preds = %12
  %17 = load ptr, ptr %7, align 8
  %18 = load i32, ptr %8, align 4
  %19 = insertvalue { ptr, i32 } poison, ptr %17, 0
  %20 = insertvalue { ptr, i32 } %19, i32 %18, 1
  resume { ptr, i32 } %20
}

; Function Attrs: mustprogress nounwind uwtable
define linkonce_odr hidden void @_ZN26pattern_validation_functorC2ER8uint_setjjiijj(ptr noundef nonnull align 8 dereferenceable(36) %0, ptr noundef nonnull align 8 dereferenceable(8) %1, i32 noundef %2, i32 noundef %3, i32 noundef %4, i32 noundef %5, i32 noundef %6, i32 noundef %7) unnamed_addr #5 comdat align 2 {
  %9 = alloca ptr, align 8
  %10 = alloca ptr, align 8
  %11 = alloca i32, align 4
  %12 = alloca i32, align 4
  %13 = alloca i32, align 4
  %14 = alloca i32, align 4
  %15 = alloca i32, align 4
  %16 = alloca i32, align 4
  store ptr %0, ptr %9, align 8, !tbaa !25
  store ptr %1, ptr %10, align 8, !tbaa !8
  store i32 %2, ptr %11, align 4, !tbaa !10
  store i32 %3, ptr %12, align 4, !tbaa !10
  store i32 %4, ptr %13, align 4, !tbaa !10
  store i32 %5, ptr %14, align 4, !tbaa !10
  store i32 %6, ptr %15, align 4, !tbaa !10
  store i32 %7, ptr %16, align 4, !tbaa !10
  %17 = load ptr, ptr %9, align 8
  %18 = getelementptr inbounds nuw %struct.pattern_validation_functor, ptr %17, i32 0, i32 0
  %19 = load ptr, ptr %10, align 8, !tbaa !8
  store ptr %19, ptr %18, align 8, !tbaa !8
  %20 = getelementptr inbounds nuw %struct.pattern_validation_functor, ptr %17, i32 0, i32 1
  %21 = load i32, ptr %11, align 4, !tbaa !10
  store i32 %21, ptr %20, align 8, !tbaa !27
  %22 = getelementptr inbounds nuw %struct.pattern_validation_functor, ptr %17, i32 0, i32 2
  %23 = load i32, ptr %12, align 4, !tbaa !10
  store i32 %23, ptr %22, align 4, !tbaa !28
  %24 = getelementptr inbounds nuw %struct.pattern_validation_functor, ptr %17, i32 0, i32 3
  store i8 1, ptr %24, align 8, !tbaa !17
  %25 = getelementptr inbounds nuw %struct.pattern_validation_functor, ptr %17, i32 0, i32 4
  store i8 0, ptr %25, align 1, !tbaa !22
  %26 = getelementptr inbounds nuw %struct.pattern_validation_functor, ptr %17, i32 0, i32 6
  %27 = load i32, ptr %13, align 4, !tbaa !10
  store i32 %27, ptr %26, align 4, !tbaa !29
  %28 = getelementptr inbounds nuw %struct.pattern_validation_functor, ptr %17, i32 0, i32 7
  %29 = load i32, ptr %14, align 4, !tbaa !10
  store i32 %29, ptr %28, align 8, !tbaa !30
  %30 = getelementptr inbounds nuw %struct.pattern_validation_functor, ptr %17, i32 0, i32 8
  %31 = load i32, ptr %15, align 4, !tbaa !10
  store i32 %31, ptr %30, align 4, !tbaa !31
  %32 = getelementptr inbounds nuw %struct.pattern_validation_functor, ptr %17, i32 0, i32 9
  %33 = load i32, ptr %16, align 4, !tbaa !10
  store i32 %33, ptr %32, align 8, !tbaa !32
  ret void
}

; Function Attrs: mustprogress nounwind uwtable
define linkonce_odr hidden noundef i32 @_ZNK3ast8get_kindEv(ptr noundef nonnull align 4 dereferenceable(16) %0) #5 comdat align 2 {
  %2 = alloca ptr, align 8
  store ptr %0, ptr %2, align 8, !tbaa !23
  %3 = load ptr, ptr %2, align 8
  %4 = getelementptr inbounds nuw %class.ast, ptr %3, i32 0, i32 1
  %5 = load i32, ptr %4, align 4
  %6 = and i32 %5, 65535
  ret i32 %6
}

; Function Attrs: mustprogress uwtable
define hidden noundef zeroext i1 @_ZN17pattern_validator7processER8uint_setjjP4exprjj(ptr noundef nonnull align 4 dereferenceable(8) %0, ptr noundef nonnull align 8 dereferenceable(8) %1, i32 noundef %2, i32 noundef %3, ptr noundef %4, i32 noundef %5, i32 noundef %6) #4 align 2 {
  %8 = alloca i1, align 1
  %9 = alloca ptr, align 8
  %10 = alloca ptr, align 8
  %11 = alloca i32, align 4
  %12 = alloca i32, align 4
  %13 = alloca ptr, align 8
  %14 = alloca i32, align 4
  %15 = alloca i32, align 4
  %16 = alloca %struct.pattern_validation_functor, align 8
  %17 = alloca i32, align 4
  store ptr %0, ptr %9, align 8, !tbaa !3
  store ptr %1, ptr %10, align 8, !tbaa !8
  store i32 %2, ptr %11, align 4, !tbaa !10
  store i32 %3, ptr %12, align 4, !tbaa !10
  store ptr %4, ptr %13, align 8, !tbaa !12
  store i32 %5, ptr %14, align 4, !tbaa !10
  store i32 %6, ptr %15, align 4, !tbaa !10
  %18 = load ptr, ptr %9, align 8
  %19 = load ptr, ptr %13, align 8, !tbaa !12
  %20 = call noundef i32 @_ZNK3ast8get_kindEv(ptr noundef nonnull align 4 dereferenceable(16) %19)
  %21 = icmp eq i32 %20, 1
  br i1 %21, label %22, label %25

22:                                               ; preds = %7
  %23 = load i32, ptr %14, align 4, !tbaa !10
  %24 = load i32, ptr %15, align 4, !tbaa !10
  call void (ptr, ...) @_Z11warning_msgPKcz(ptr noundef @.str, i32 noundef %23, i32 noundef %24)
  store i1 false, ptr %8, align 1
  br label %49

25:                                               ; preds = %7
  call void @llvm.lifetime.start.p0(i64 40, ptr %16) #3
  %26 = load ptr, ptr %10, align 8, !tbaa !8
  %27 = load i32, ptr %11, align 4, !tbaa !10
  %28 = load i32, ptr %12, align 4, !tbaa !10
  %29 = getelementptr inbounds nuw %class.pattern_validator, ptr %18, i32 0, i32 0
  %30 = load i32, ptr %29, align 4, !tbaa !14
  %31 = getelementptr inbounds nuw %class.pattern_validator, ptr %18, i32 0, i32 1
  %32 = load i32, ptr %31, align 4, !tbaa !16
  %33 = load i32, ptr %14, align 4, !tbaa !10
  %34 = load i32, ptr %15, align 4, !tbaa !10
  call void @_ZN26pattern_validation_functorC2ER8uint_setjjiijj(ptr noundef nonnull align 8 dereferenceable(36) %16, ptr noundef nonnull align 8 dereferenceable(8) %26, i32 noundef %27, i32 noundef %28, i32 noundef %30, i32 noundef %32, i32 noundef %33, i32 noundef %34)
  %35 = load ptr, ptr %13, align 8, !tbaa !12
  call void @_Z13for_each_exprI26pattern_validation_functorEvRT_P4expr(ptr noundef nonnull align 8 dereferenceable(36) %16, ptr noundef %35)
  %36 = getelementptr inbounds nuw %struct.pattern_validation_functor, ptr %16, i32 0, i32 3
  %37 = load i8, ptr %36, align 8, !tbaa !17, !range !20, !noundef !21
  %38 = trunc i8 %37 to i1
  br i1 %38, label %40, label %39

39:                                               ; preds = %25
  store i1 false, ptr %8, align 1
  store i32 1, ptr %17, align 4
  br label %48

40:                                               ; preds = %25
  %41 = getelementptr inbounds nuw %struct.pattern_validation_functor, ptr %16, i32 0, i32 4
  %42 = load i8, ptr %41, align 1, !tbaa !22, !range !20, !noundef !21
  %43 = trunc i8 %42 to i1
  br i1 %43, label %47, label %44

44:                                               ; preds = %40
  %45 = load i32, ptr %14, align 4, !tbaa !10
  %46 = load i32, ptr %15, align 4, !tbaa !10
  call void (ptr, ...) @_Z11warning_msgPKcz(ptr noundef @.str.1, i32 noundef %45, i32 noundef %46)
  store i1 false, ptr %8, align 1
  store i32 1, ptr %17, align 4
  br label %48

47:                                               ; preds = %40
  store i1 true, ptr %8, align 1
  store i32 1, ptr %17, align 4
  br label %48

48:                                               ; preds = %47, %44, %39
  call void @llvm.lifetime.end.p0(i64 40, ptr %16) #3
  br label %49

49:                                               ; preds = %48, %22
  %50 = load i1, ptr %8, align 1
  ret i1 %50
}