; Function Attrs: mustprogress uwtable
define hidden noundef zeroext i1 @_ZN17pattern_validator7processER8uint_setjjP4exprjj(ptr noundef nonnull readonly align 4 captures(none) dereferenceable(8) %0, ptr noundef nonnull align 8 dereferenceable(8) %1, i32 noundef %2, i32 noundef %3, ptr noundef %4, i32 noundef %5, i32 noundef %6) local_unnamed_addr #3 align 2 personality ptr @__gxx_personality_v0 {
  %8 = alloca %class.obj_mark, align 8
  %9 = alloca %struct.pattern_validation_functor, align 8
  %10 = getelementptr inbounds nuw i8, ptr %4, i64 4
  %11 = load i32, ptr %10, align 4
  %12 = and i32 %11, 65535
  %13 = icmp eq i32 %12, 1
  br i1 %13, label %14, label %15

14:                                               ; preds = %7
  tail call void (ptr, ...) @_Z11warning_msgPKcz(ptr noundef nonnull @.str, i32 noundef %5, i32 noundef %6)
  br label %45

15:                                               ; preds = %7
  call void @llvm.lifetime.start.p0(i64 40, ptr nonnull %9) #20
  %16 = load i32, ptr %0, align 4, !tbaa !3
  %17 = getelementptr inbounds nuw i8, ptr %0, i64 4
  %18 = load i32, ptr %17, align 4, !tbaa !8
  store ptr %1, ptr %9, align 8, !tbaa !9
  %19 = getelementptr inbounds nuw i8, ptr %9, i64 8
  store i32 %2, ptr %19, align 8, !tbaa !12
  %20 = getelementptr inbounds nuw i8, ptr %9, i64 12
  store i32 %3, ptr %20, align 4, !tbaa !15
  %21 = getelementptr inbounds nuw i8, ptr %9, i64 16
  store i8 1, ptr %21, align 8, !tbaa !16
  %22 = getelementptr inbounds nuw i8, ptr %9, i64 17
  store i8 0, ptr %22, align 1, !tbaa !17
  %23 = getelementptr inbounds nuw i8, ptr %9, i64 20
  store i32 %16, ptr %23, align 4, !tbaa !18
  %24 = getelementptr inbounds nuw i8, ptr %9, i64 24
  store i32 %18, ptr %24, align 8, !tbaa !19
  %25 = getelementptr inbounds nuw i8, ptr %9, i64 28
  store i32 %5, ptr %25, align 4, !tbaa !20
  %26 = getelementptr inbounds nuw i8, ptr %9, i64 32
  store i32 %6, ptr %26, align 8, !tbaa !21
  call void @llvm.lifetime.start.p0(i64 24, ptr nonnull %8) #20
  %27 = getelementptr inbounds nuw i8, ptr %8, i64 8
  call void @llvm.memset.p0.i64(ptr noundef nonnull align 8 dereferenceable(16) %27, i8 0, i64 16, i1 false)
  invoke void @_Z18for_each_expr_coreI26pattern_validation_functor8obj_markI4expr10bit_vector14default_t2uintIS2_EELb0ELb0EEvRT_RT0_PS2_(ptr noundef nonnull align 8 dereferenceable(36) %9, ptr noundef nonnull align 8 dereferenceable(24) %8, ptr noundef nonnull %4)
          to label %28 unwind label %36

28:                                               ; preds = %15
  %29 = getelementptr inbounds nuw i8, ptr %8, i64 16
  %30 = load ptr, ptr %29, align 8, !tbaa !22
  %31 = icmp eq ptr %30, null
  br i1 %31, label %_Z13for_each_exprI26pattern_validation_functorEvRT_P4expr.exit, label %32

32:                                               ; preds = %28
  invoke void @_ZN6memory10deallocateEPv(ptr noundef nonnull %30)
          to label %_Z13for_each_exprI26pattern_validation_functorEvRT_P4expr.exit unwind label %33

33:                                               ; preds = %32
  %34 = landingpad { ptr, i32 }
          catch ptr null
  %35 = extractvalue { ptr, i32 } %34, 0
  call void @__clang_call_terminate(ptr %35) #21
  unreachable

36:                                               ; preds = %15
  %37 = landingpad { ptr, i32 }
          cleanup
  call void @_ZN8obj_markI4expr10bit_vector14default_t2uintIS0_EED2Ev(ptr noundef nonnull align 8 dereferenceable(24) %8) #20
  call void @llvm.lifetime.end.p0(i64 24, ptr nonnull %8) #20
  resume { ptr, i32 } %37

_Z13for_each_exprI26pattern_validation_functorEvRT_P4expr.exit: ; preds = %28, %32
  call void @llvm.lifetime.end.p0(i64 24, ptr nonnull %8) #20
  %38 = load i8, ptr %21, align 8, !tbaa !16, !range !25, !noundef !26
  %39 = trunc nuw i8 %38 to i1
  br i1 %39, label %40, label %44

40:                                               ; preds = %_Z13for_each_exprI26pattern_validation_functorEvRT_P4expr.exit
  %41 = load i8, ptr %22, align 1, !tbaa !17, !range !25, !noundef !26
  %42 = trunc nuw i8 %41 to i1
  br i1 %42, label %44, label %43

43:                                               ; preds = %40
  call void (ptr, ...) @_Z11warning_msgPKcz(ptr noundef nonnull @.str.1, i32 noundef %5, i32 noundef %6)
  br label %44

44:                                               ; preds = %40, %_Z13for_each_exprI26pattern_validation_functorEvRT_P4expr.exit, %43
  %.1 = phi i1 [ false, %43 ], [ false, %_Z13for_each_exprI26pattern_validation_functorEvRT_P4expr.exit ], [ true, %40 ]
  call void @llvm.lifetime.end.p0(i64 40, ptr nonnull %9) #20
  br label %45

45:                                               ; preds = %44, %14
  %.0 = phi i1 [ false, %14 ], [ %.1, %44 ]
  ret i1 %.0
}